target datalayout = "e-m:e-p270:32:32-p271:32:32-p272:64:64-i64:64-i128:128-f80:128-n8:16:32:64-S128"
target triple = "x86_64-pc-linux-gnu"

%struct.__loadu_si128 = type { <2 x i64> }
%struct.__storeu_si128 = type { <2 x i64> }

; Function Attrs: alwaysinline nounwind uwtable
define internal <2 x i64> @_mm_set_epi16(i16 noundef signext %0, i16 noundef signext %1, i16 noundef signext %2, i16 noundef signext %3, i16 noundef signext %4, i16 noundef signext %5, i16 noundef signext %6, i16 noundef signext %7) #3 {
  %9 = alloca i16, align 2
  %10 = alloca i16, align 2
  %11 = alloca i16, align 2
  %12 = alloca i16, align 2
  %13 = alloca i16, align 2
  %14 = alloca i16, align 2
  %15 = alloca i16, align 2
  %16 = alloca i16, align 2
  %17 = alloca <8 x i16>, align 16
  store i16 %0, ptr %9, align 2, !tbaa !12
  store i16 %1, ptr %10, align 2, !tbaa !12
  store i16 %2, ptr %11, align 2, !tbaa !12
  store i16 %3, ptr %12, align 2, !tbaa !12
  store i16 %4, ptr %13, align 2, !tbaa !12
  store i16 %5, ptr %14, align 2, !tbaa !12
  store i16 %6, ptr %15, align 2, !tbaa !12
  store i16 %7, ptr %16, align 2, !tbaa !12
  %18 = load i16, ptr %16, align 2, !tbaa !12
  %19 = insertelement <8 x i16> poison, i16 %18, i32 0
  %20 = load i16, ptr %15, align 2, !tbaa !12
  %21 = insertelement <8 x i16> %19, i16 %20, i32 1
  %22 = load i16, ptr %14, align 2, !tbaa !12
  %23 = insertelement <8 x i16> %21, i16 %22, i32 2
  %24 = load i16, ptr %13, align 2, !tbaa !12
  %25 = insertelement <8 x i16> %23, i16 %24, i32 3
  %26 = load i16, ptr %12, align 2, !tbaa !12
  %27 = insertelement <8 x i16> %25, i16 %26, i32 4
  %28 = load i16, ptr %11, align 2, !tbaa !12
  %29 = insertelement <8 x i16> %27, i16 %28, i32 5
  %30 = load i16, ptr %10, align 2, !tbaa !12
  %31 = insertelement <8 x i16> %29, i16 %30, i32 6
  %32 = load i16, ptr %9, align 2, !tbaa !12
  %33 = insertelement <8 x i16> %31, i16 %32, i32 7
  store <8 x i16> %33, ptr %17, align 16, !tbaa !11
  %34 = load <8 x i16>, ptr %17, align 16, !tbaa !11
  %35 = bitcast <8 x i16> %34 to <2 x i64>
  ret <2 x i64> %35
}

; Function Attrs: alwaysinline nounwind uwtable
define internal void @_mm_storeu_si128(ptr noundef %0, <2 x i64> noundef %1) #3 {
  %3 = alloca ptr, align 8
  %4 = alloca <2 x i64>, align 16
  store ptr %0, ptr %3, align 8, !tbaa !3
  store <2 x i64> %1, ptr %4, align 16, !tbaa !11
  %5 = load <2 x i64>, ptr %4, align 16, !tbaa !11
  %6 = load ptr, ptr %3, align 8, !tbaa !3
  %7 = getelementptr inbounds nuw %struct.__storeu_si128, ptr %6, i32 0, i32 0
  store <2 x i64> %5, ptr %7, align 1, !tbaa !11
  ret void
}

; Function Attrs: alwaysinline nounwind uwtable
define internal <2 x i64> @_mm_add_epi32(<2 x i64> noundef %0, <2 x i64> noundef %1) #3 {
  %3 = alloca <2 x i64>, align 16
  %4 = alloca <2 x i64>, align 16
  store <2 x i64> %0, ptr %3, align 16, !tbaa !11
  store <2 x i64> %1, ptr %4, align 16, !tbaa !11
  %5 = load <2 x i64>, ptr %3, align 16, !tbaa !11
  %6 = bitcast <2 x i64> %5 to <4 x i32>
  %7 = load <2 x i64>, ptr %4, align 16, !tbaa !11
  %8 = bitcast <2 x i64> %7 to <4 x i32>
  %9 = add <4 x i32> %6, %8
  %10 = bitcast <4 x i32> %9 to <2 x i64>
  ret <2 x i64> %10
}

; Function Attrs: alwaysinline nounwind uwtable
define internal <2 x i64> @_mm_and_si128(<2 x i64> noundef %0, <2 x i64> noundef %1) #3 {
  %3 = alloca <2 x i64>, align 16
  %4 = alloca <2 x i64>, align 16
  store <2 x i64> %0, ptr %3, align 16, !tbaa !11
  store <2 x i64> %1, ptr %4, align 16, !tbaa !11
  %5 = load <2 x i64>, ptr %3, align 16, !tbaa !11
  %6 = load <2 x i64>, ptr %4, align 16, !tbaa !11
  %7 = and <2 x i64> %5, %6
  ret <2 x i64> %7
}

; Function Attrs: alwaysinline nounwind uwtable
define internal <2 x i64> @_mm_srli_epi16(<2 x i64> noundef %0, i32 noundef %1) #3 {
  %3 = alloca <2 x i64>, align 16
  %4 = alloca i32, align 4
  store <2 x i64> %0, ptr %3, align 16, !tbaa !11
  store i32 %1, ptr %4, align 4, !tbaa !9
  %5 = load <2 x i64>, ptr %3, align 16, !tbaa !11
  %6 = bitcast <2 x i64> %5 to <8 x i16>
  %7 = load i32, ptr %4, align 4, !tbaa !9
  %8 = call <8 x i16> @llvm.x86.sse2.psrli.w(<8 x i16> %6, i32 %7)
  %9 = bitcast <8 x i16> %8 to <2 x i64>
  ret <2 x i64> %9
}

; Function Attrs: alwaysinline nounwind uwtable
define internal <2 x i64> @_mm_loadu_si128(ptr noundef %0) #3 {
  %2 = alloca ptr, align 8
  store ptr %0, ptr %2, align 8, !tbaa !3
  %3 = load ptr, ptr %2, align 8, !tbaa !3
  %4 = getelementptr inbounds nuw %struct.__loadu_si128, ptr %3, i32 0, i32 0
  %5 = load <2 x i64>, ptr %4, align 1, !tbaa !11
  ret <2 x i64> %5
}

; Function Attrs: alwaysinline nounwind uwtable
define internal <2 x i64> @_mm_set1_epi16(i16 noundef signext %0) #3 {
  %2 = alloca i16, align 2
  store i16 %0, ptr %2, align 2, !tbaa !12
  %3 = load i16, ptr %2, align 2, !tbaa !12
  %4 = load i16, ptr %2, align 2, !tbaa !12
  %5 = load i16, ptr %2, align 2, !tbaa !12
  %6 = load i16, ptr %2, align 2, !tbaa !12
  %7 = load i16, ptr %2, align 2, !tbaa !12
  %8 = load i16, ptr %2, align 2, !tbaa !12
  %9 = load i16, ptr %2, align 2, !tbaa !12
  %10 = load i16, ptr %2, align 2, !tbaa !12
  %11 = call <2 x i64> @_mm_set_epi16(i16 noundef signext %3, i16 noundef signext %4, i16 noundef signext %5, i16 noundef signext %6, i16 noundef signext %7, i16 noundef signext %8, i16 noundef signext %9, i16 noundef signext %10)
  ret <2 x i64> %11
}

; Function Attrs: nounwind uwtable
define internal void @Mean16x4_SSE2(ptr noalias noundef %0, ptr noundef %1) #1 {
  %3 = alloca ptr, align 8
  %4 = alloca ptr, align 8
  %5 = alloca <2 x i64>, align 16
  %6 = alloca <2 x i64>, align 16
  %7 = alloca <2 x i64>, align 16
  %8 = alloca <2 x i64>, align 16
  %9 = alloca <2 x i64>, align 16
  %10 = alloca <2 x i64>, align 16
  %11 = alloca <2 x i64>, align 16
  %12 = alloca <2 x i64>, align 16
  %13 = alloca <2 x i64>, align 16
  %14 = alloca <2 x i64>, align 16
  %15 = alloca <2 x i64>, align 16
  %16 = alloca <2 x i64>, align 16
  %17 = alloca <2 x i64>, align 16
  %18 = alloca <2 x i64>, align 16
  %19 = alloca <2 x i64>, align 16
  %20 = alloca <2 x i64>, align 16
  %21 = alloca <2 x i64>, align 16
  %22 = alloca <2 x i64>, align 16
  %23 = alloca <2 x i64>, align 16
  %24 = alloca <2 x i64>, align 16
  %25 = alloca [8 x i16], align 16
  store ptr %0, ptr %3, align 8, !tbaa !7
  store ptr %1, ptr %4, align 8, !tbaa !24
  call void @llvm.lifetime.start.p0(i64 16, ptr %5) #11
  %26 = call <2 x i64> @_mm_set1_epi16(i16 noundef signext 255)
  store <2 x i64> %26, ptr %5, align 16, !tbaa !11
  call void @llvm.lifetime.start.p0(i64 16, ptr %6) #11
  %27 = load ptr, ptr %3, align 8, !tbaa !7
  %28 = getelementptr inbounds i8, ptr %27, i64 0
  %29 = call <2 x i64> @_mm_loadu_si128(ptr noundef %28)
  store <2 x i64> %29, ptr %6, align 16, !tbaa !11
  call void @llvm.lifetime.start.p0(i64 16, ptr %7) #11
  %30 = load ptr, ptr %3, align 8, !tbaa !7
  %31 = getelementptr inbounds i8, ptr %30, i64 32
  %32 = call <2 x i64> @_mm_loadu_si128(ptr noundef %31)
  store <2 x i64> %32, ptr %7, align 16, !tbaa !11
  call void @llvm.lifetime.start.p0(i64 16, ptr %8) #11
  %33 = load ptr, ptr %3, align 8, !tbaa !7
  %34 = getelementptr inbounds i8, ptr %33, i64 64
  %35 = call <2 x i64> @_mm_loadu_si128(ptr noundef %34)
  store <2 x i64> %35, ptr %8, align 16, !tbaa !11
  call void @llvm.lifetime.start.p0(i64 16, ptr %9) #11
  %36 = load ptr, ptr %3, align 8, !tbaa !7
  %37 = getelementptr inbounds i8, ptr %36, i64 96
  %38 = call <2 x i64> @_mm_loadu_si128(ptr noundef %37)
  store <2 x i64> %38, ptr %9, align 16, !tbaa !11
  call void @llvm.lifetime.start.p0(i64 16, ptr %10) #11
  %39 = load <2 x i64>, ptr %6, align 16, !tbaa !11
  %40 = call <2 x i64> @_mm_srli_epi16(<2 x i64> noundef %39, i32 noundef 8)
  store <2 x i64> %40, ptr %10, align 16, !tbaa !11
  call void @llvm.lifetime.start.p0(i64 16, ptr %11) #11
  %41 = load <2 x i64>, ptr %7, align 16, !tbaa !11
  %42 = call <2 x i64> @_mm_srli_epi16(<2 x i64> noundef %41, i32 noundef 8)
  store <2 x i64> %42, ptr %11, align 16, !tbaa !11
  call void @llvm.lifetime.start.p0(i64 16, ptr %12) #11
  %43 = load <2 x i64>, ptr %8, align 16, !tbaa !11
  %44 = call <2 x i64> @_mm_srli_epi16(<2 x i64> noundef %43, i32 noundef 8)
  store <2 x i64> %44, ptr %12, align 16, !tbaa !11
  call void @llvm.lifetime.start.p0(i64 16, ptr %13) #11
  %45 = load <2 x i64>, ptr %9, align 16, !tbaa !11
  %46 = call <2 x i64> @_mm_srli_epi16(<2 x i64> noundef %45, i32 noundef 8)
  store <2 x i64> %46, ptr %13, align 16, !tbaa !11
  call void @llvm.lifetime.start.p0(i64 16, ptr %14) #11
  %47 = load <2 x i64>, ptr %6, align 16, !tbaa !11
  %48 = load <2 x i64>, ptr %5, align 16, !tbaa !11
  %49 = call <2 x i64> @_mm_and_si128(<2 x i64> noundef %47, <2 x i64> noundef %48)
  store <2 x i64> %49, ptr %14, align 16, !tbaa !11
  call void @llvm.lifetime.start.p0(i64 16, ptr %15) #11
  %50 = load <2 x i64>, ptr %7, align 16, !tbaa !11
  %51 = load <2 x i64>, ptr %5, align 16, !tbaa !11
  %52 = call <2 x i64> @_mm_and_si128(<2 x i64> noundef %50, <2 x i64> noundef %51)
  store <2 x i64> %52, ptr %15, align 16, !tbaa !11
  call void @llvm.lifetime.start.p0(i64 16, ptr %16) #11
  %53 = load <2 x i64>, ptr %8, align 16, !tbaa !11
  %54 = load <2 x i64>, ptr %5, align 16, !tbaa !11
  %55 = call <2 x i64> @_mm_and_si128(<2 x i64> noundef %53, <2 x i64> noundef %54)
  store <2 x i64> %55, ptr %16, align 16, !tbaa !11
  call void @llvm.lifetime.start.p0(i64 16, ptr %17) #11
  %56 = load <2 x i64>, ptr %9, align 16, !tbaa !11
  %57 = load <2 x i64>, ptr %5, align 16, !tbaa !11
  %58 = call <2 x i64> @_mm_and_si128(<2 x i64> noundef %56, <2 x i64> noundef %57)
  store <2 x i64> %58, ptr %17, align 16, !tbaa !11
  call void @llvm.lifetime.start.p0(i64 16, ptr %18) #11
  %59 = load <2 x i64>, ptr %10, align 16, !tbaa !11
  %60 = load <2 x i64>, ptr %14, align 16, !tbaa !11
  %61 = call <2 x i64> @_mm_add_epi32(<2 x i64> noundef %59, <2 x i64> noundef %60)
  store <2 x i64> %61, ptr %18, align 16, !tbaa !11
  call void @llvm.lifetime.start.p0(i64 16, ptr %19) #11
  %62 = load <2 x i64>, ptr %11, align 16, !tbaa !11
  %63 = load <2 x i64>, ptr %15, align 16, !tbaa !11
  %64 = call <2 x i64> @_mm_add_epi32(<2 x i64> noundef %62, <2 x i64> noundef %63)
  store <2 x i64> %64, ptr %19, align 16, !tbaa !11
  call void @llvm.lifetime.start.p0(i64 16, ptr %20) #11
  %65 = load <2 x i64>, ptr %12, align 16, !tbaa !11
  %66 = load <2 x i64>, ptr %16, align 16, !tbaa !11
  %67 = call <2 x i64> @_mm_add_epi32(<2 x i64> noundef %65, <2 x i64> noundef %66)
  store <2 x i64> %67, ptr %20, align 16, !tbaa !11
  call void @llvm.lifetime.start.p0(i64 16, ptr %21) #11
  %68 = load <2 x i64>, ptr %13, align 16, !tbaa !11
  %69 = load <2 x i64>, ptr %17, align 16, !tbaa !11
  %70 = call <2 x i64> @_mm_add_epi32(<2 x i64> noundef %68, <2 x i64> noundef %69)
  store <2 x i64> %70, ptr %21, align 16, !tbaa !11
  call void @llvm.lifetime.start.p0(i64 16, ptr %22) #11
  %71 = load <2 x i64>, ptr %18, align 16, !tbaa !11
  %72 = load <2 x i64>, ptr %19, align 16, !tbaa !11
  %73 = call <2 x i64> @_mm_add_epi32(<2 x i64> noundef %71, <2 x i64> noundef %72)
  store <2 x i64> %73, ptr %22, align 16, !tbaa !11
  call void @llvm.lifetime.start.p0(i64 16, ptr %23) #11
  %74 = load <2 x i64>, ptr %20, align 16, !tbaa !11
  %75 = load <2 x i64>, ptr %21, align 16, !tbaa !11
  %76 = call <2 x i64> @_mm_add_epi32(<2 x i64> noundef %74, <2 x i64> noundef %75)
  store <2 x i64> %76, ptr %23, align 16, !tbaa !11
  call void @llvm.lifetime.start.p0(i64 16, ptr %24) #11
  %77 = load <2 x i64>, ptr %22, align 16, !tbaa !11
  %78 = load <2 x i64>, ptr %23, align 16, !tbaa !11
  %79 = call <2 x i64> @_mm_add_epi32(<2 x i64> noundef %77, <2 x i64> noundef %78)
  store <2 x i64> %79, ptr %24, align 16, !tbaa !11
  call void @llvm.lifetime.start.p0(i64 16, ptr %25) #11
  %80 = getelementptr inbounds [8 x i16], ptr %25, i64 0, i64 0
  %81 = load <2 x i64>, ptr %24, align 16, !tbaa !11
  call void @_mm_storeu_si128(ptr noundef %80, <2 x i64> noundef %81)
  %82 = getelementptr inbounds [8 x i16], ptr %25, i64 0, i64 0
  %83 = load i16, ptr %82, align 16, !tbaa !12
  %84 = zext i16 %83 to i32
  %85 = getelementptr inbounds [8 x i16], ptr %25, i64 0, i64 1
  %86 = load i16, ptr %85, align 2, !tbaa !12
  %87 = zext i16 %86 to i32
  %88 = add nsw i32 %84, %87
  %89 = load ptr, ptr %4, align 8, !tbaa !24
  %90 = getelementptr inbounds i32, ptr %89, i64 0
  store i32 %88, ptr %90, align 4, !tbaa !9
  %91 = getelementptr inbounds [8 x i16], ptr %25, i64 0, i64 2
  %92 = load i16, ptr %91, align 4, !tbaa !12
  %93 = zext i16 %92 to i32
  %94 = getelementptr inbounds [8 x i16], ptr %25, i64 0, i64 3
  %95 = load i16, ptr %94, align 2, !tbaa !12
  %96 = zext i16 %95 to i32
  %97 = add nsw i32 %93, %96
  %98 = load ptr, ptr %4, align 8, !tbaa !24
  %99 = getelementptr inbounds i32, ptr %98, i64 1
  store i32 %97, ptr %99, align 4, !tbaa !9
  %100 = getelementptr inbounds [8 x i16], ptr %25, i64 0, i64 4
  %101 = load i16, ptr %100, align 8, !tbaa !12
  %102 = zext i16 %101 to i32
  %103 = getelementptr inbounds [8 x i16], ptr %25, i64 0, i64 5
  %104 = load i16, ptr %103, align 2, !tbaa !12
  %105 = zext i16 %104 to i32
  %106 = add nsw i32 %102, %105
  %107 = load ptr, ptr %4, align 8, !tbaa !24
  %108 = getelementptr inbounds i32, ptr %107, i64 2
  store i32 %106, ptr %108, align 4, !tbaa !9
  %109 = getelementptr inbounds [8 x i16], ptr %25, i64 0, i64 6
  %110 = load i16, ptr %109, align 4, !tbaa !12
  %111 = zext i16 %110 to i32
  %112 = getelementptr inbounds [8 x i16], ptr %25, i64 0, i64 7
  %113 = load i16, ptr %112, align 2, !tbaa !12
  %114 = zext i16 %113 to i32
  %115 = add nsw i32 %111, %114
  %116 = load ptr, ptr %4, align 8, !tbaa !24
  %117 = getelementptr inbounds i32, ptr %116, i64 3
  store i32 %115, ptr %117, align 4, !tbaa !9
  call void @llvm.lifetime.end.p0(i64 16, ptr %25) #11
  call void @llvm.lifetime.end.p0(i64 16, ptr %24) #11
  call void @llvm.lifetime.end.p0(i64 16, ptr %23) #11
  call void @llvm.lifetime.end.p0(i64 16, ptr %22) #11
  call void @llvm.lifetime.end.p0(i64 16, ptr %21) #11
  call void @llvm.lifetime.end.p0(i64 16, ptr %20) #11
  call void @llvm.lifetime.end.p0(i64 16, ptr %19) #11
  call void @llvm.lifetime.end.p0(i64 16, ptr %18) #11
  call void @llvm.lifetime.end.p0(i64 16, ptr %17) #11
  call void @llvm.lifetime.end.p0(i64 16, ptr %16) #11
  call void @llvm.lifetime.end.p0(i64 16, ptr %15) #11
  call void @llvm.lifetime.end.p0(i64 16, ptr %14) #11
  call void @llvm.lifetime.end.p0(i64 16, ptr %13) #11
  call void @llvm.lifetime.end.p0(i64 16, ptr %12) #11
  call void @llvm.lifetime.end.p0(i64 16, ptr %11) #11
  call void @llvm.lifetime.end.p0(i64 16, ptr %10) #11
  call void @llvm.lifetime.end.p0(i64 16, ptr %9) #11
  call void @llvm.lifetime.end.p0(i64 16, ptr %8) #11
  call void @llvm.lifetime.end.p0(i64 16, ptr %7) #11
  call void @llvm.lifetime.end.p0(i64 16, ptr %6) #11
  call void @llvm.lifetime.end.p0(i64 16, ptr %5) #11
  ret void
}