; Function Attrs: mustprogress nofree norecurse nosync nounwind willreturn memory(argmem: readwrite) uwtable
define internal void @Mean16x4_SSE2(ptr noalias noundef readonly captures(none) %0, ptr noundef writeonly captures(none) initializes((0, 16)) %1) #5 {
  %3 = load <2 x i64>, ptr %0, align 1, !tbaa !14
  %4 = getelementptr inbounds nuw i8, ptr %0, i64 32
  %5 = load <2 x i64>, ptr %4, align 1, !tbaa !14
  %6 = getelementptr inbounds nuw i8, ptr %0, i64 64
  %7 = load <2 x i64>, ptr %6, align 1, !tbaa !14
  %8 = getelementptr inbounds nuw i8, ptr %0, i64 96
  %9 = load <2 x i64>, ptr %8, align 1, !tbaa !14
  %10 = bitcast <2 x i64> %3 to <8 x i16>
  %11 = lshr <8 x i16> %10, splat (i16 8)
  %12 = bitcast <2 x i64> %5 to <8 x i16>
  %13 = lshr <8 x i16> %12, splat (i16 8)
  %14 = bitcast <2 x i64> %7 to <8 x i16>
  %15 = lshr <8 x i16> %14, splat (i16 8)
  %16 = bitcast <2 x i64> %9 to <8 x i16>
  %17 = lshr <8 x i16> %16, splat (i16 8)
  %18 = bitcast <8 x i16> %11 to <4 x i32>
  %19 = bitcast <2 x i64> %3 to <4 x i32>
  %20 = and <4 x i32> %19, splat (i32 16711935)
  %21 = bitcast <8 x i16> %13 to <4 x i32>
  %22 = bitcast <2 x i64> %5 to <4 x i32>
  %23 = and <4 x i32> %22, splat (i32 16711935)
  %24 = bitcast <8 x i16> %15 to <4 x i32>
  %25 = bitcast <2 x i64> %7 to <4 x i32>
  %26 = and <4 x i32> %25, splat (i32 16711935)
  %27 = bitcast <8 x i16> %17 to <4 x i32>
  %28 = bitcast <2 x i64> %9 to <4 x i32>
  %29 = and <4 x i32> %28, splat (i32 16711935)
  %30 = add nuw nsw <4 x i32> %20, %18
  %31 = add nuw nsw <4 x i32> %30, %23
  %32 = add nuw nsw <4 x i32> %31, %21
  %33 = add nuw nsw <4 x i32> %32, %26
  %34 = add nuw nsw <4 x i32> %33, %24
  %35 = add nuw nsw <4 x i32> %34, %29
  %36 = add nuw nsw <4 x i32> %35, %27
  %37 = bitcast <4 x i32> %36 to <8 x i16>
  %.sroa.0.0.vec.extract = extractelement <8 x i16> %37, i64 0
  %38 = zext i16 %.sroa.0.0.vec.extract to i32
  %.sroa.0.2.vec.extract = extractelement <8 x i16> %37, i64 1
  %39 = zext i16 %.sroa.0.2.vec.extract to i32
  %40 = add nuw nsw i32 %38, %39
  store i32 %40, ptr %1, align 4, !tbaa !7
  %.sroa.0.4.vec.extract = extractelement <8 x i16> %37, i64 2
  %41 = zext i16 %.sroa.0.4.vec.extract to i32
  %.sroa.0.6.vec.extract = extractelement <8 x i16> %37, i64 3
  %42 = zext i16 %.sroa.0.6.vec.extract to i32
  %43 = add nuw nsw i32 %41, %42
  %44 = getelementptr inbounds nuw i8, ptr %1, i64 4
  store i32 %43, ptr %44, align 4, !tbaa !7
  %.sroa.0.8.vec.extract = extractelement <8 x i16> %37, i64 4
  %45 = zext i16 %.sroa.0.8.vec.extract to i32
  %.sroa.0.10.vec.extract = extractelement <8 x i16> %37, i64 5
  %46 = zext i16 %.sroa.0.10.vec.extract to i32
  %47 = add nuw nsw i32 %45, %46
  %48 = getelementptr inbounds nuw i8, ptr %1, i64 8
  store i32 %47, ptr %48, align 4, !tbaa !7
  %.sroa.0.12.vec.extract = extractelement <8 x i16> %37, i64 6
  %49 = zext i16 %.sroa.0.12.vec.extract to i32
  %.sroa.0.14.vec.extract = extractelement <8 x i16> %37, i64 7
  %50 = zext i16 %.sroa.0.14.vec.extract to i32
  %51 = add nuw nsw i32 %49, %50
  %52 = getelementptr inbounds nuw i8, ptr %1, i64 12
  store i32 %51, ptr %52, align 4, !tbaa !7
  ret void
}